target datalayout = "e-m:e-p270:32:32-p271:32:32-p272:64:64-i64:64-i128:128-f80:128-n8:16:32:64-S128"
target triple = "x86_64-pc-linux-gnu"

%struct.ma_resampling_backend_vtable = type { ptr, ptr, ptr, ptr, ptr, ptr, ptr, ptr, ptr, ptr }
%struct.ma_allocation_callbacks = type { ptr, ptr, ptr, ptr }
%struct.ma_resampler = type { ptr, ptr, ptr, i32, i32, i32, i32, %union.anon.23, ptr, i32 }
%union.anon.23 = type { %struct.ma_linear_resampler }
%struct.ma_linear_resampler = type { %struct.ma_linear_resampler_config, i32, i32, i32, i32, %union.anon.24, %union.anon.25, %struct.ma_lpf, ptr, i32 }
%struct.ma_linear_resampler_config = type { i32, i32, i32, i32, i32, double }
%union.anon.24 = type { ptr }
%union.anon.25 = type { ptr }
%struct.ma_lpf = type { i32, i32, i32, i32, i32, ptr, ptr, ptr, i32 }

; Function Attrs: nounwind uwtable
define internal void @ma__free_default(ptr noundef %0, ptr noundef %1) #0 {
  %3 = alloca ptr, align 8
  %4 = alloca ptr, align 8
  store ptr %0, ptr %3, align 8
  store ptr %1, ptr %4, align 8
  %5 = load ptr, ptr %3, align 8
  call void @free(ptr noundef %5) #21
  ret void
}

; Function Attrs: nounwind uwtable
define hidden void @ma_free(ptr noundef %0, ptr noundef %1) #0 {
  %3 = alloca ptr, align 8
  %4 = alloca ptr, align 8
  store ptr %0, ptr %3, align 8
  store ptr %1, ptr %4, align 8
  %5 = load ptr, ptr %3, align 8
  %6 = icmp eq ptr %5, null
  br i1 %6, label %7, label %8

7:                                                ; preds = %2
  br label %28

8:                                                ; preds = %2
  %9 = load ptr, ptr %4, align 8
  %10 = icmp ne ptr %9, null
  br i1 %10, label %11, label %26

11:                                               ; preds = %8
  %12 = load ptr, ptr %4, align 8
  %13 = getelementptr inbounds nuw %struct.ma_allocation_callbacks, ptr %12, i32 0, i32 3
  %14 = load ptr, ptr %13, align 8
  %15 = icmp ne ptr %14, null
  br i1 %15, label %16, label %24

16:                                               ; preds = %11
  %17 = load ptr, ptr %4, align 8
  %18 = getelementptr inbounds nuw %struct.ma_allocation_callbacks, ptr %17, i32 0, i32 3
  %19 = load ptr, ptr %18, align 8
  %20 = load ptr, ptr %3, align 8
  %21 = load ptr, ptr %4, align 8
  %22 = getelementptr inbounds nuw %struct.ma_allocation_callbacks, ptr %21, i32 0, i32 0
  %23 = load ptr, ptr %22, align 8
  call void %19(ptr noundef %20, ptr noundef %23)
  br label %25

24:                                               ; preds = %11
  br label %28

25:                                               ; preds = %16
  br label %28

26:                                               ; preds = %8
  %27 = load ptr, ptr %3, align 8
  call void @ma__free_default(ptr noundef %27, ptr noundef null)
  br label %28

28:                                               ; preds = %7, %24, %26, %25
  ret void
}

; Function Attrs: nounwind uwtable
define hidden void @ma_resampler_uninit(ptr noundef %0, ptr noundef %1) #0 {
  %3 = alloca ptr, align 8
  %4 = alloca ptr, align 8
  store ptr %0, ptr %3, align 8
  store ptr %1, ptr %4, align 8
  %5 = load ptr, ptr %3, align 8
  %6 = icmp eq ptr %5, null
  br i1 %6, label %7, label %8

7:                                                ; preds = %2
  br label %43

8:                                                ; preds = %2
  %9 = load ptr, ptr %3, align 8
  %10 = getelementptr inbounds nuw %struct.ma_resampler, ptr %9, i32 0, i32 1
  %11 = load ptr, ptr %10, align 8
  %12 = icmp eq ptr %11, null
  br i1 %12, label %20, label %13

13:                                               ; preds = %8
  %14 = load ptr, ptr %3, align 8
  %15 = getelementptr inbounds nuw %struct.ma_resampler, ptr %14, i32 0, i32 1
  %16 = load ptr, ptr %15, align 8
  %17 = getelementptr inbounds nuw %struct.ma_resampling_backend_vtable, ptr %16, i32 0, i32 2
  %18 = load ptr, ptr %17, align 8
  %19 = icmp eq ptr %18, null
  br i1 %19, label %20, label %21

20:                                               ; preds = %13, %8
  br label %43

21:                                               ; preds = %13
  %22 = load ptr, ptr %3, align 8
  %23 = getelementptr inbounds nuw %struct.ma_resampler, ptr %22, i32 0, i32 1
  %24 = load ptr, ptr %23, align 8
  %25 = getelementptr inbounds nuw %struct.ma_resampling_backend_vtable, ptr %24, i32 0, i32 2
  %26 = load ptr, ptr %25, align 8
  %27 = load ptr, ptr %3, align 8
  %28 = getelementptr inbounds nuw %struct.ma_resampler, ptr %27, i32 0, i32 2
  %29 = load ptr, ptr %28, align 8
  %30 = load ptr, ptr %3, align 8
  %31 = getelementptr inbounds nuw %struct.ma_resampler, ptr %30, i32 0, i32 0
  %32 = load ptr, ptr %31, align 8
  %33 = load ptr, ptr %4, align 8
  call void %26(ptr noundef %29, ptr noundef %32, ptr noundef %33)
  %34 = load ptr, ptr %3, align 8
  %35 = getelementptr inbounds nuw %struct.ma_resampler, ptr %34, i32 0, i32 9
  %36 = load i32, ptr %35, align 8
  %37 = icmp ne i32 %36, 0
  br i1 %37, label %38, label %43

38:                                               ; preds = %21
  %39 = load ptr, ptr %3, align 8
  %40 = getelementptr inbounds nuw %struct.ma_resampler, ptr %39, i32 0, i32 8
  %41 = load ptr, ptr %40, align 8
  %42 = load ptr, ptr %4, align 8
  call void @ma_free(ptr noundef %41, ptr noundef %42)
  br label %43

43:                                               ; preds = %7, %20, %38, %21
  ret void
}