; Function Attrs: nounwind uwtable
define hidden void @ma_resampler_uninit(ptr noundef readonly captures(address_is_null) %0, ptr noundef %1) local_unnamed_addr #7 {
  %3 = icmp eq ptr %0, null
  br i1 %3, label %ma_free.exit, label %4

4:                                                ; preds = %2
  %5 = getelementptr inbounds nuw i8, ptr %0, i64 8
  %6 = load ptr, ptr %5, align 8
  %7 = icmp eq ptr %6, null
  br i1 %7, label %ma_free.exit, label %8

8:                                                ; preds = %4
  %9 = getelementptr inbounds nuw i8, ptr %6, i64 16
  %10 = load ptr, ptr %9, align 8
  %11 = icmp eq ptr %10, null
  br i1 %11, label %ma_free.exit, label %12

12:                                               ; preds = %8
  %13 = getelementptr inbounds nuw i8, ptr %0, i64 16
  %14 = load ptr, ptr %13, align 8
  %15 = load ptr, ptr %0, align 8
  tail call void %10(ptr noundef %14, ptr noundef %15, ptr noundef %1) #72
  %16 = getelementptr inbounds nuw i8, ptr %0, i64 184
  %17 = load i32, ptr %16, align 8
  %.not = icmp eq i32 %17, 0
  br i1 %.not, label %ma_free.exit, label %18

18:                                               ; preds = %12
  %19 = getelementptr inbounds nuw i8, ptr %0, i64 176
  %20 = load ptr, ptr %19, align 8
  %21 = icmp eq ptr %20, null
  br i1 %21, label %ma_free.exit, label %22

22:                                               ; preds = %18
  %.not.i = icmp eq ptr %1, null
  br i1 %.not.i, label %28, label %23

23:                                               ; preds = %22
  %24 = getelementptr inbounds nuw i8, ptr %1, i64 24
  %25 = load ptr, ptr %24, align 8
  %.not9.i = icmp eq ptr %25, null
  br i1 %.not9.i, label %ma_free.exit, label %26

26:                                               ; preds = %23
  %27 = load ptr, ptr %1, align 8
  tail call void %25(ptr noundef nonnull %20, ptr noundef %27) #72
  br label %ma_free.exit

28:                                               ; preds = %22
  tail call void @free(ptr noundef nonnull %20) #72
  br label %ma_free.exit

ma_free.exit:                                     ; preds = %28, %26, %23, %18, %4, %8, %2, %12
  ret void
}